; Function Attrs: nounwind uwtable
define internal range(i32 -24832, 1) i32 @chacha20_setkey_wrap(ptr noundef %0, ptr noundef %1, i32 noundef %2) #0 {
  %.not = icmp eq i32 %2, 256
  br i1 %.not, label %4, label %6

4:                                                ; preds = %3
  %5 = tail call i32 @mbedtls_chacha20_setkey(ptr noundef %0, ptr noundef %1) #4
  %.not3 = icmp eq i32 %5, 0
  %. = select i1 %.not3, i32 0, i32 -24832
  br label %6

6:                                                ; preds = %4, %3
  %.0 = phi i32 [ -24832, %3 ], [ %., %4 ]
  ret i32 %.0
}